target datalayout = "e-m:e-p270:32:32-p271:32:32-p272:64:64-i64:64-i128:128-f80:128-n8:16:32:64-S128"
target triple = "x86_64-pc-linux-gnu"

%struct.AVFilterContext = type { ptr, ptr, ptr, ptr, ptr, i32, ptr, ptr, i32, ptr, ptr, i32, i32, ptr, ptr, ptr, ptr, i32, ptr, i32, i32 }
%struct.AVFilterPad = type { ptr, i32, i32, %union.anon, ptr, ptr, ptr }
%union.anon = type { ptr }

; Function Attrs: nounwind uwtable
define internal i32 @append_pad(ptr noundef %0, ptr noundef %1, ptr noundef %2, ptr noundef %3) #0 {
  %5 = alloca i32, align 4
  %6 = alloca ptr, align 8
  %7 = alloca ptr, align 8
  %8 = alloca ptr, align 8
  %9 = alloca ptr, align 8
  %10 = alloca ptr, align 8
  %11 = alloca ptr, align 8
  %12 = alloca i32, align 4
  %13 = alloca i32, align 4
  store ptr %0, ptr %6, align 8, !tbaa !11
  store ptr %1, ptr %7, align 8, !tbaa !13
  store ptr %2, ptr %8, align 8, !tbaa !16
  store ptr %3, ptr %9, align 8, !tbaa !9
  call void @llvm.lifetime.start.p0(i64 8, ptr %10) #11
  call void @llvm.lifetime.start.p0(i64 8, ptr %11) #11
  call void @llvm.lifetime.start.p0(i64 4, ptr %12) #11
  %14 = load ptr, ptr %6, align 8, !tbaa !11
  %15 = load i32, ptr %14, align 4, !tbaa !19
  store i32 %15, ptr %12, align 4, !tbaa !19
  %16 = load ptr, ptr %7, align 8, !tbaa !13
  %17 = load ptr, ptr %16, align 8, !tbaa !9
  %18 = load i32, ptr %12, align 4, !tbaa !19
  %19 = add i32 %18, 1
  %20 = zext i32 %19 to i64
  %21 = call ptr @av_realloc_array(ptr noundef %17, i64 noundef %20, i64 noundef 48)
  store ptr %21, ptr %11, align 8, !tbaa !9
  %22 = load ptr, ptr %8, align 8, !tbaa !16
  %23 = load ptr, ptr %22, align 8, !tbaa !21
  %24 = load i32, ptr %12, align 4, !tbaa !19
  %25 = add i32 %24, 1
  %26 = zext i32 %25 to i64
  %27 = call ptr @av_realloc_array(ptr noundef %23, i64 noundef %26, i64 noundef 8)
  store ptr %27, ptr %10, align 8, !tbaa !21
  %28 = load ptr, ptr %11, align 8, !tbaa !9
  %29 = icmp ne ptr %28, null
  br i1 %29, label %30, label %33

30:                                               ; preds = %4
  %31 = load ptr, ptr %11, align 8, !tbaa !9
  %32 = load ptr, ptr %7, align 8, !tbaa !13
  store ptr %31, ptr %32, align 8, !tbaa !9
  br label %33

33:                                               ; preds = %30, %4
  %34 = load ptr, ptr %10, align 8, !tbaa !21
  %35 = icmp ne ptr %34, null
  br i1 %35, label %36, label %39

36:                                               ; preds = %33
  %37 = load ptr, ptr %10, align 8, !tbaa !21
  %38 = load ptr, ptr %8, align 8, !tbaa !16
  store ptr %37, ptr %38, align 8, !tbaa !21
  br label %39

39:                                               ; preds = %36, %33
  %40 = load ptr, ptr %11, align 8, !tbaa !9
  %41 = icmp ne ptr %40, null
  br i1 %41, label %42, label %45

42:                                               ; preds = %39
  %43 = load ptr, ptr %10, align 8, !tbaa !21
  %44 = icmp ne ptr %43, null
  br i1 %44, label %55, label %45

45:                                               ; preds = %42, %39
  %46 = load ptr, ptr %9, align 8, !tbaa !9
  %47 = getelementptr inbounds nuw %struct.AVFilterPad, ptr %46, i32 0, i32 2
  %48 = load i32, ptr %47, align 4, !tbaa !23
  %49 = and i32 %48, 2
  %50 = icmp ne i32 %49, 0
  br i1 %50, label %51, label %54

51:                                               ; preds = %45
  %52 = load ptr, ptr %9, align 8, !tbaa !9
  %53 = getelementptr inbounds nuw %struct.AVFilterPad, ptr %52, i32 0, i32 0
  call void @av_freep(ptr noundef %53)
  br label %54

54:                                               ; preds = %51, %45
  store i32 -12, ptr %5, align 4
  store i32 1, ptr %13, align 4
  br label %70

55:                                               ; preds = %42
  %56 = load ptr, ptr %7, align 8, !tbaa !13
  %57 = load ptr, ptr %56, align 8, !tbaa !9
  %58 = load i32, ptr %12, align 4, !tbaa !19
  %59 = zext i32 %58 to i64
  %60 = getelementptr inbounds nuw %struct.AVFilterPad, ptr %57, i64 %59
  %61 = load ptr, ptr %9, align 8, !tbaa !9
  call void @llvm.memcpy.p0.p0.i64(ptr align 8 %60, ptr align 8 %61, i64 48, i1 false)
  %62 = load ptr, ptr %8, align 8, !tbaa !16
  %63 = load ptr, ptr %62, align 8, !tbaa !21
  %64 = load i32, ptr %12, align 4, !tbaa !19
  %65 = zext i32 %64 to i64
  %66 = getelementptr inbounds nuw ptr, ptr %63, i64 %65
  store ptr null, ptr %66, align 8, !tbaa !26
  %67 = load ptr, ptr %6, align 8, !tbaa !11
  %68 = load i32, ptr %67, align 4, !tbaa !19
  %69 = add i32 %68, 1
  store i32 %69, ptr %67, align 4, !tbaa !19
  store i32 0, ptr %5, align 4
  store i32 1, ptr %13, align 4
  br label %70

70:                                               ; preds = %55, %54
  call void @llvm.lifetime.end.p0(i64 4, ptr %12) #11
  call void @llvm.lifetime.end.p0(i64 8, ptr %11) #11
  call void @llvm.lifetime.end.p0(i64 8, ptr %10) #11
  %71 = load i32, ptr %5, align 4
  ret i32 %71
}

; Function Attrs: nounwind uwtable
define i32 @ff_append_outpad(ptr noundef %0, ptr noundef %1) #0 {
  %3 = alloca ptr, align 8
  %4 = alloca ptr, align 8
  store ptr %0, ptr %3, align 8, !tbaa !4
  store ptr %1, ptr %4, align 8, !tbaa !9
  %5 = load ptr, ptr %3, align 8, !tbaa !4
  %6 = getelementptr inbounds nuw %struct.AVFilterContext, ptr %5, i32 0, i32 8
  %7 = load ptr, ptr %3, align 8, !tbaa !4
  %8 = getelementptr inbounds nuw %struct.AVFilterContext, ptr %7, i32 0, i32 6
  %9 = load ptr, ptr %3, align 8, !tbaa !4
  %10 = getelementptr inbounds nuw %struct.AVFilterContext, ptr %9, i32 0, i32 7
  %11 = load ptr, ptr %4, align 8, !tbaa !9
  %12 = call i32 @append_pad(ptr noundef %6, ptr noundef %8, ptr noundef %10, ptr noundef %11)
  ret i32 %12
}